; Function Attrs: mustprogress nofree norecurse nosync nounwind willreturn memory(read, argmem: readwrite, inaccessiblemem: none) uwtable
define void @_ZN5draco16SymbolBitDecoder28DecodeLeastSignificantBits32EiPj(ptr noundef nonnull align 8 captures(none) dereferenceable(24) %0, i32 noundef %1, ptr noundef writeonly captures(none) initializes((0, 4)) %2) local_unnamed_addr #4 align 2 {
  %4 = getelementptr inbounds nuw i8, ptr %0, i64 8
  %5 = load ptr, ptr %4, align 8, !tbaa !19
  %6 = getelementptr inbounds i8, ptr %5, i64 -4
  %7 = load i32, ptr %6, align 4, !tbaa !20
  store ptr %6, ptr %4, align 8, !tbaa !15
  %8 = sub nsw i32 32, %1
  %9 = lshr i32 -1, %8
  %10 = and i32 %7, %9
  store i32 %10, ptr %2, align 4, !tbaa !20
  ret void
}